ARM GAS  C:\Users\Kingj\AppData\Local\Temp\ccjUgrkl.s 			page 1


   1              		.cpu cortex-m3
   2              		.arch armv7-m
   3              		.fpu softvfp
   4              		.eabi_attribute 20, 1
   5              		.eabi_attribute 21, 1
   6              		.eabi_attribute 23, 3
   7              		.eabi_attribute 24, 1
   8              		.eabi_attribute 25, 1
   9              		.eabi_attribute 26, 1
  10              		.eabi_attribute 30, 1
  11              		.eabi_attribute 34, 1
  12              		.eabi_attribute 18, 4
  13              		.file	"stm32f1xx_hal_msp.c"
  14              		.text
  15              	.Ltext0:
  16              		.cfi_sections	.debug_frame
  17              		.section	.text.HAL_MspInit,"ax",%progbits
  18              		.align	1
  19              		.global	HAL_MspInit
  20              		.syntax unified
  21              		.thumb
  22              		.thumb_func
  24              	HAL_MspInit:
  25              	.LFB65:
  26              		.file 1 "Core/Src/stm32f1xx_hal_msp.c"
   1:Core/Src/stm32f1xx_hal_msp.c **** /* USER CODE BEGIN Header */
   2:Core/Src/stm32f1xx_hal_msp.c **** /**
   3:Core/Src/stm32f1xx_hal_msp.c ****   ******************************************************************************
   4:Core/Src/stm32f1xx_hal_msp.c ****   * @file         stm32f1xx_hal_msp.c
   5:Core/Src/stm32f1xx_hal_msp.c ****   * @brief        This file provides code for the MSP Initialization
   6:Core/Src/stm32f1xx_hal_msp.c ****   *               and de-Initialization codes.
   7:Core/Src/stm32f1xx_hal_msp.c ****   ******************************************************************************
   8:Core/Src/stm32f1xx_hal_msp.c ****   * @attention
   9:Core/Src/stm32f1xx_hal_msp.c ****   *
  10:Core/Src/stm32f1xx_hal_msp.c ****   * Copyright (c) 2024 STMicroelectronics.
  11:Core/Src/stm32f1xx_hal_msp.c ****   * All rights reserved.
  12:Core/Src/stm32f1xx_hal_msp.c ****   *
  13:Core/Src/stm32f1xx_hal_msp.c ****   * This software is licensed under terms that can be found in the LICENSE file
  14:Core/Src/stm32f1xx_hal_msp.c ****   * in the root directory of this software component.
  15:Core/Src/stm32f1xx_hal_msp.c ****   * If no LICENSE file comes with this software, it is provided AS-IS.
  16:Core/Src/stm32f1xx_hal_msp.c ****   *
  17:Core/Src/stm32f1xx_hal_msp.c ****   ******************************************************************************
  18:Core/Src/stm32f1xx_hal_msp.c ****   */
  19:Core/Src/stm32f1xx_hal_msp.c **** /* USER CODE END Header */
  20:Core/Src/stm32f1xx_hal_msp.c **** 
  21:Core/Src/stm32f1xx_hal_msp.c **** /* Includes ------------------------------------------------------------------*/
  22:Core/Src/stm32f1xx_hal_msp.c **** #include "main.h"
  23:Core/Src/stm32f1xx_hal_msp.c **** 
  24:Core/Src/stm32f1xx_hal_msp.c **** /* USER CODE BEGIN Includes */
  25:Core/Src/stm32f1xx_hal_msp.c **** 
  26:Core/Src/stm32f1xx_hal_msp.c **** /* USER CODE END Includes */
  27:Core/Src/stm32f1xx_hal_msp.c **** 
  28:Core/Src/stm32f1xx_hal_msp.c **** /* Private typedef -----------------------------------------------------------*/
  29:Core/Src/stm32f1xx_hal_msp.c **** /* USER CODE BEGIN TD */
  30:Core/Src/stm32f1xx_hal_msp.c **** 
  31:Core/Src/stm32f1xx_hal_msp.c **** /* USER CODE END TD */
  32:Core/Src/stm32f1xx_hal_msp.c **** 
ARM GAS  C:\Users\Kingj\AppData\Local\Temp\ccjUgrkl.s 			page 2


  33:Core/Src/stm32f1xx_hal_msp.c **** /* Private define ------------------------------------------------------------*/
  34:Core/Src/stm32f1xx_hal_msp.c **** /* USER CODE BEGIN Define */
  35:Core/Src/stm32f1xx_hal_msp.c **** 
  36:Core/Src/stm32f1xx_hal_msp.c **** /* USER CODE END Define */
  37:Core/Src/stm32f1xx_hal_msp.c **** 
  38:Core/Src/stm32f1xx_hal_msp.c **** /* Private macro -------------------------------------------------------------*/
  39:Core/Src/stm32f1xx_hal_msp.c **** /* USER CODE BEGIN Macro */
  40:Core/Src/stm32f1xx_hal_msp.c **** 
  41:Core/Src/stm32f1xx_hal_msp.c **** /* USER CODE END Macro */
  42:Core/Src/stm32f1xx_hal_msp.c **** 
  43:Core/Src/stm32f1xx_hal_msp.c **** /* Private variables ---------------------------------------------------------*/
  44:Core/Src/stm32f1xx_hal_msp.c **** /* USER CODE BEGIN PV */
  45:Core/Src/stm32f1xx_hal_msp.c **** 
  46:Core/Src/stm32f1xx_hal_msp.c **** /* USER CODE END PV */
  47:Core/Src/stm32f1xx_hal_msp.c **** 
  48:Core/Src/stm32f1xx_hal_msp.c **** /* Private function prototypes -----------------------------------------------*/
  49:Core/Src/stm32f1xx_hal_msp.c **** /* USER CODE BEGIN PFP */
  50:Core/Src/stm32f1xx_hal_msp.c **** 
  51:Core/Src/stm32f1xx_hal_msp.c **** /* USER CODE END PFP */
  52:Core/Src/stm32f1xx_hal_msp.c **** 
  53:Core/Src/stm32f1xx_hal_msp.c **** /* External functions --------------------------------------------------------*/
  54:Core/Src/stm32f1xx_hal_msp.c **** /* USER CODE BEGIN ExternalFunctions */
  55:Core/Src/stm32f1xx_hal_msp.c **** 
  56:Core/Src/stm32f1xx_hal_msp.c **** /* USER CODE END ExternalFunctions */
  57:Core/Src/stm32f1xx_hal_msp.c **** 
  58:Core/Src/stm32f1xx_hal_msp.c **** /* USER CODE BEGIN 0 */
  59:Core/Src/stm32f1xx_hal_msp.c **** 
  60:Core/Src/stm32f1xx_hal_msp.c **** /* USER CODE END 0 */
  61:Core/Src/stm32f1xx_hal_msp.c **** /**
  62:Core/Src/stm32f1xx_hal_msp.c ****   * Initializes the Global MSP.
  63:Core/Src/stm32f1xx_hal_msp.c ****   */
  64:Core/Src/stm32f1xx_hal_msp.c **** void HAL_MspInit(void)
  65:Core/Src/stm32f1xx_hal_msp.c **** {
  27              		.loc 1 65 1 view -0
  28              		.cfi_startproc
  29              		@ args = 0, pretend = 0, frame = 8
  30              		@ frame_needed = 0, uses_anonymous_args = 0
  31 0000 00B5     		push	{lr}
  32              	.LCFI0:
  33              		.cfi_def_cfa_offset 4
  34              		.cfi_offset 14, -4
  35 0002 83B0     		sub	sp, sp, #12
  36              	.LCFI1:
  37              		.cfi_def_cfa_offset 16
  66:Core/Src/stm32f1xx_hal_msp.c ****   /* USER CODE BEGIN MspInit 0 */
  67:Core/Src/stm32f1xx_hal_msp.c **** 
  68:Core/Src/stm32f1xx_hal_msp.c ****   /* USER CODE END MspInit 0 */
  69:Core/Src/stm32f1xx_hal_msp.c **** 
  70:Core/Src/stm32f1xx_hal_msp.c ****   __HAL_RCC_AFIO_CLK_ENABLE();
  38              		.loc 1 70 3 view .LVU1
  39              	.LBB2:
  40              		.loc 1 70 3 view .LVU2
  41              		.loc 1 70 3 view .LVU3
  42 0004 114B     		ldr	r3, .L3
  43 0006 9A69     		ldr	r2, [r3, #24]
  44 0008 42F00102 		orr	r2, r2, #1
  45 000c 9A61     		str	r2, [r3, #24]
ARM GAS  C:\Users\Kingj\AppData\Local\Temp\ccjUgrkl.s 			page 3


  46              		.loc 1 70 3 view .LVU4
  47 000e 9A69     		ldr	r2, [r3, #24]
  48 0010 02F00102 		and	r2, r2, #1
  49 0014 0092     		str	r2, [sp]
  50              		.loc 1 70 3 view .LVU5
  51 0016 009A     		ldr	r2, [sp]
  52              	.LBE2:
  53              		.loc 1 70 3 view .LVU6
  71:Core/Src/stm32f1xx_hal_msp.c ****   __HAL_RCC_PWR_CLK_ENABLE();
  54              		.loc 1 71 3 view .LVU7
  55              	.LBB3:
  56              		.loc 1 71 3 view .LVU8
  57              		.loc 1 71 3 view .LVU9
  58 0018 DA69     		ldr	r2, [r3, #28]
  59 001a 42F08052 		orr	r2, r2, #268435456
  60 001e DA61     		str	r2, [r3, #28]
  61              		.loc 1 71 3 view .LVU10
  62 0020 DB69     		ldr	r3, [r3, #28]
  63 0022 03F08053 		and	r3, r3, #268435456
  64 0026 0193     		str	r3, [sp, #4]
  65              		.loc 1 71 3 view .LVU11
  66 0028 019B     		ldr	r3, [sp, #4]
  67              	.LBE3:
  68              		.loc 1 71 3 view .LVU12
  72:Core/Src/stm32f1xx_hal_msp.c **** 
  73:Core/Src/stm32f1xx_hal_msp.c ****   /* System interrupt init*/
  74:Core/Src/stm32f1xx_hal_msp.c ****   /* PendSV_IRQn interrupt configuration */
  75:Core/Src/stm32f1xx_hal_msp.c ****   HAL_NVIC_SetPriority(PendSV_IRQn, 15, 0);
  69              		.loc 1 75 3 view .LVU13
  70 002a 0022     		movs	r2, #0
  71 002c 0F21     		movs	r1, #15
  72 002e 6FF00100 		mvn	r0, #1
  73 0032 FFF7FEFF 		bl	HAL_NVIC_SetPriority
  74              	.LVL0:
  76:Core/Src/stm32f1xx_hal_msp.c **** 
  77:Core/Src/stm32f1xx_hal_msp.c ****   /** NOJTAG: JTAG-DP Disabled and SW-DP Enabled
  78:Core/Src/stm32f1xx_hal_msp.c ****   */
  79:Core/Src/stm32f1xx_hal_msp.c ****   __HAL_AFIO_REMAP_SWJ_NOJTAG();
  75              		.loc 1 79 3 view .LVU14
  76              	.LBB4:
  77              		.loc 1 79 3 view .LVU15
  78 0036 064A     		ldr	r2, .L3+4
  79 0038 5368     		ldr	r3, [r2, #4]
  80              	.LVL1:
  81              		.loc 1 79 3 view .LVU16
  82 003a 23F0E063 		bic	r3, r3, #117440512
  83              	.LVL2:
  84              		.loc 1 79 3 view .LVU17
  85 003e 43F00073 		orr	r3, r3, #33554432
  86              	.LVL3:
  87              		.loc 1 79 3 view .LVU18
  88 0042 5360     		str	r3, [r2, #4]
  89              	.LBE4:
  90              		.loc 1 79 3 view .LVU19
  80:Core/Src/stm32f1xx_hal_msp.c **** 
  81:Core/Src/stm32f1xx_hal_msp.c ****   /* USER CODE BEGIN MspInit 1 */
  82:Core/Src/stm32f1xx_hal_msp.c **** 
ARM GAS  C:\Users\Kingj\AppData\Local\Temp\ccjUgrkl.s 			page 4


  83:Core/Src/stm32f1xx_hal_msp.c ****   /* USER CODE END MspInit 1 */
  84:Core/Src/stm32f1xx_hal_msp.c **** }
  91              		.loc 1 84 1 is_stmt 0 view .LVU20
  92 0044 03B0     		add	sp, sp, #12
  93              	.LCFI2:
  94              		.cfi_def_cfa_offset 4
  95              		@ sp needed
  96 0046 5DF804FB 		ldr	pc, [sp], #4
  97              	.L4:
  98 004a 00BF     		.align	2
  99              	.L3:
 100 004c 00100240 		.word	1073876992
 101 0050 00000140 		.word	1073807360
 102              		.cfi_endproc
 103              	.LFE65:
 105              		.section	.text.HAL_ADC_MspInit,"ax",%progbits
 106              		.align	1
 107              		.global	HAL_ADC_MspInit
 108              		.syntax unified
 109              		.thumb
 110              		.thumb_func
 112              	HAL_ADC_MspInit:
 113              	.LVL4:
 114              	.LFB66:
  85:Core/Src/stm32f1xx_hal_msp.c **** 
  86:Core/Src/stm32f1xx_hal_msp.c **** /**
  87:Core/Src/stm32f1xx_hal_msp.c **** * @brief ADC MSP Initialization
  88:Core/Src/stm32f1xx_hal_msp.c **** * This function configures the hardware resources used in this example
  89:Core/Src/stm32f1xx_hal_msp.c **** * @param hadc: ADC handle pointer
  90:Core/Src/stm32f1xx_hal_msp.c **** * @retval None
  91:Core/Src/stm32f1xx_hal_msp.c **** */
  92:Core/Src/stm32f1xx_hal_msp.c **** void HAL_ADC_MspInit(ADC_HandleTypeDef* hadc)
  93:Core/Src/stm32f1xx_hal_msp.c **** {
 115              		.loc 1 93 1 is_stmt 1 view -0
 116              		.cfi_startproc
 117              		@ args = 0, pretend = 0, frame = 24
 118              		@ frame_needed = 0, uses_anonymous_args = 0
 119              		.loc 1 93 1 is_stmt 0 view .LVU22
 120 0000 00B5     		push	{lr}
 121              	.LCFI3:
 122              		.cfi_def_cfa_offset 4
 123              		.cfi_offset 14, -4
 124 0002 87B0     		sub	sp, sp, #28
 125              	.LCFI4:
 126              		.cfi_def_cfa_offset 32
  94:Core/Src/stm32f1xx_hal_msp.c ****   GPIO_InitTypeDef GPIO_InitStruct = {0};
 127              		.loc 1 94 3 is_stmt 1 view .LVU23
 128              		.loc 1 94 20 is_stmt 0 view .LVU24
 129 0004 0023     		movs	r3, #0
 130 0006 0293     		str	r3, [sp, #8]
 131 0008 0393     		str	r3, [sp, #12]
 132 000a 0493     		str	r3, [sp, #16]
 133 000c 0593     		str	r3, [sp, #20]
  95:Core/Src/stm32f1xx_hal_msp.c ****   if(hadc->Instance==ADC1)
 134              		.loc 1 95 3 is_stmt 1 view .LVU25
 135              		.loc 1 95 10 is_stmt 0 view .LVU26
 136 000e 0268     		ldr	r2, [r0]
ARM GAS  C:\Users\Kingj\AppData\Local\Temp\ccjUgrkl.s 			page 5


 137              		.loc 1 95 5 view .LVU27
 138 0010 104B     		ldr	r3, .L9
 139 0012 9A42     		cmp	r2, r3
 140 0014 02D0     		beq	.L8
 141              	.LVL5:
 142              	.L5:
  96:Core/Src/stm32f1xx_hal_msp.c ****   {
  97:Core/Src/stm32f1xx_hal_msp.c ****   /* USER CODE BEGIN ADC1_MspInit 0 */
  98:Core/Src/stm32f1xx_hal_msp.c **** 
  99:Core/Src/stm32f1xx_hal_msp.c ****   /* USER CODE END ADC1_MspInit 0 */
 100:Core/Src/stm32f1xx_hal_msp.c ****     /* Peripheral clock enable */
 101:Core/Src/stm32f1xx_hal_msp.c ****     __HAL_RCC_ADC1_CLK_ENABLE();
 102:Core/Src/stm32f1xx_hal_msp.c **** 
 103:Core/Src/stm32f1xx_hal_msp.c ****     __HAL_RCC_GPIOB_CLK_ENABLE();
 104:Core/Src/stm32f1xx_hal_msp.c ****     /**ADC1 GPIO Configuration
 105:Core/Src/stm32f1xx_hal_msp.c ****     PB0     ------> ADC1_IN8
 106:Core/Src/stm32f1xx_hal_msp.c ****     PB1     ------> ADC1_IN9
 107:Core/Src/stm32f1xx_hal_msp.c ****     */
 108:Core/Src/stm32f1xx_hal_msp.c ****     GPIO_InitStruct.Pin = GPIO_PIN_0|GPIO_PIN_1;
 109:Core/Src/stm32f1xx_hal_msp.c ****     GPIO_InitStruct.Mode = GPIO_MODE_ANALOG;
 110:Core/Src/stm32f1xx_hal_msp.c ****     HAL_GPIO_Init(GPIOB, &GPIO_InitStruct);
 111:Core/Src/stm32f1xx_hal_msp.c **** 
 112:Core/Src/stm32f1xx_hal_msp.c ****   /* USER CODE BEGIN ADC1_MspInit 1 */
 113:Core/Src/stm32f1xx_hal_msp.c **** 
 114:Core/Src/stm32f1xx_hal_msp.c ****   /* USER CODE END ADC1_MspInit 1 */
 115:Core/Src/stm32f1xx_hal_msp.c ****   }
 116:Core/Src/stm32f1xx_hal_msp.c **** 
 117:Core/Src/stm32f1xx_hal_msp.c **** }
 143              		.loc 1 117 1 view .LVU28
 144 0016 07B0     		add	sp, sp, #28
 145              	.LCFI5:
 146              		.cfi_remember_state
 147              		.cfi_def_cfa_offset 4
 148              		@ sp needed
 149 0018 5DF804FB 		ldr	pc, [sp], #4
 150              	.LVL6:
 151              	.L8:
 152              	.LCFI6:
 153              		.cfi_restore_state
 101:Core/Src/stm32f1xx_hal_msp.c **** 
 154              		.loc 1 101 5 is_stmt 1 view .LVU29
 155              	.LBB5:
 101:Core/Src/stm32f1xx_hal_msp.c **** 
 156              		.loc 1 101 5 view .LVU30
 101:Core/Src/stm32f1xx_hal_msp.c **** 
 157              		.loc 1 101 5 view .LVU31
 158 001c 03F56C43 		add	r3, r3, #60416
 159 0020 9A69     		ldr	r2, [r3, #24]
 160 0022 42F40072 		orr	r2, r2, #512
 161 0026 9A61     		str	r2, [r3, #24]
 101:Core/Src/stm32f1xx_hal_msp.c **** 
 162              		.loc 1 101 5 view .LVU32
 163 0028 9A69     		ldr	r2, [r3, #24]
 164 002a 02F40072 		and	r2, r2, #512
 165 002e 0092     		str	r2, [sp]
 101:Core/Src/stm32f1xx_hal_msp.c **** 
 166              		.loc 1 101 5 view .LVU33
ARM GAS  C:\Users\Kingj\AppData\Local\Temp\ccjUgrkl.s 			page 6


 167 0030 009A     		ldr	r2, [sp]
 168              	.LBE5:
 101:Core/Src/stm32f1xx_hal_msp.c **** 
 169              		.loc 1 101 5 view .LVU34
 103:Core/Src/stm32f1xx_hal_msp.c ****     /**ADC1 GPIO Configuration
 170              		.loc 1 103 5 view .LVU35
 171              	.LBB6:
 103:Core/Src/stm32f1xx_hal_msp.c ****     /**ADC1 GPIO Configuration
 172              		.loc 1 103 5 view .LVU36
 103:Core/Src/stm32f1xx_hal_msp.c ****     /**ADC1 GPIO Configuration
 173              		.loc 1 103 5 view .LVU37
 174 0032 9A69     		ldr	r2, [r3, #24]
 175 0034 42F00802 		orr	r2, r2, #8
 176 0038 9A61     		str	r2, [r3, #24]
 103:Core/Src/stm32f1xx_hal_msp.c ****     /**ADC1 GPIO Configuration
 177              		.loc 1 103 5 view .LVU38
 178 003a 9B69     		ldr	r3, [r3, #24]
 179 003c 03F00803 		and	r3, r3, #8
 180 0040 0193     		str	r3, [sp, #4]
 103:Core/Src/stm32f1xx_hal_msp.c ****     /**ADC1 GPIO Configuration
 181              		.loc 1 103 5 view .LVU39
 182 0042 019B     		ldr	r3, [sp, #4]
 183              	.LBE6:
 103:Core/Src/stm32f1xx_hal_msp.c ****     /**ADC1 GPIO Configuration
 184              		.loc 1 103 5 view .LVU40
 108:Core/Src/stm32f1xx_hal_msp.c ****     GPIO_InitStruct.Mode = GPIO_MODE_ANALOG;
 185              		.loc 1 108 5 view .LVU41
 108:Core/Src/stm32f1xx_hal_msp.c ****     GPIO_InitStruct.Mode = GPIO_MODE_ANALOG;
 186              		.loc 1 108 25 is_stmt 0 view .LVU42
 187 0044 0323     		movs	r3, #3
 188 0046 0293     		str	r3, [sp, #8]
 109:Core/Src/stm32f1xx_hal_msp.c ****     HAL_GPIO_Init(GPIOB, &GPIO_InitStruct);
 189              		.loc 1 109 5 is_stmt 1 view .LVU43
 109:Core/Src/stm32f1xx_hal_msp.c ****     HAL_GPIO_Init(GPIOB, &GPIO_InitStruct);
 190              		.loc 1 109 26 is_stmt 0 view .LVU44
 191 0048 0393     		str	r3, [sp, #12]
 110:Core/Src/stm32f1xx_hal_msp.c **** 
 192              		.loc 1 110 5 is_stmt 1 view .LVU45
 193 004a 02A9     		add	r1, sp, #8
 194 004c 0248     		ldr	r0, .L9+4
 195              	.LVL7:
 110:Core/Src/stm32f1xx_hal_msp.c **** 
 196              		.loc 1 110 5 is_stmt 0 view .LVU46
 197 004e FFF7FEFF 		bl	HAL_GPIO_Init
 198              	.LVL8:
 199              		.loc 1 117 1 view .LVU47
 200 0052 E0E7     		b	.L5
 201              	.L10:
 202              		.align	2
 203              	.L9:
 204 0054 00240140 		.word	1073816576
 205 0058 000C0140 		.word	1073810432
 206              		.cfi_endproc
 207              	.LFE66:
 209              		.section	.text.HAL_ADC_MspDeInit,"ax",%progbits
 210              		.align	1
 211              		.global	HAL_ADC_MspDeInit
ARM GAS  C:\Users\Kingj\AppData\Local\Temp\ccjUgrkl.s 			page 7


 212              		.syntax unified
 213              		.thumb
 214              		.thumb_func
 216              	HAL_ADC_MspDeInit:
 217              	.LVL9:
 218              	.LFB67:
 118:Core/Src/stm32f1xx_hal_msp.c **** 
 119:Core/Src/stm32f1xx_hal_msp.c **** /**
 120:Core/Src/stm32f1xx_hal_msp.c **** * @brief ADC MSP De-Initialization
 121:Core/Src/stm32f1xx_hal_msp.c **** * This function freeze the hardware resources used in this example
 122:Core/Src/stm32f1xx_hal_msp.c **** * @param hadc: ADC handle pointer
 123:Core/Src/stm32f1xx_hal_msp.c **** * @retval None
 124:Core/Src/stm32f1xx_hal_msp.c **** */
 125:Core/Src/stm32f1xx_hal_msp.c **** void HAL_ADC_MspDeInit(ADC_HandleTypeDef* hadc)
 126:Core/Src/stm32f1xx_hal_msp.c **** {
 219              		.loc 1 126 1 is_stmt 1 view -0
 220              		.cfi_startproc
 221              		@ args = 0, pretend = 0, frame = 0
 222              		@ frame_needed = 0, uses_anonymous_args = 0
 223              		.loc 1 126 1 is_stmt 0 view .LVU49
 224 0000 08B5     		push	{r3, lr}
 225              	.LCFI7:
 226              		.cfi_def_cfa_offset 8
 227              		.cfi_offset 3, -8
 228              		.cfi_offset 14, -4
 127:Core/Src/stm32f1xx_hal_msp.c ****   if(hadc->Instance==ADC1)
 229              		.loc 1 127 3 is_stmt 1 view .LVU50
 230              		.loc 1 127 10 is_stmt 0 view .LVU51
 231 0002 0268     		ldr	r2, [r0]
 232              		.loc 1 127 5 view .LVU52
 233 0004 064B     		ldr	r3, .L15
 234 0006 9A42     		cmp	r2, r3
 235 0008 00D0     		beq	.L14
 236              	.LVL10:
 237              	.L11:
 128:Core/Src/stm32f1xx_hal_msp.c ****   {
 129:Core/Src/stm32f1xx_hal_msp.c ****   /* USER CODE BEGIN ADC1_MspDeInit 0 */
 130:Core/Src/stm32f1xx_hal_msp.c **** 
 131:Core/Src/stm32f1xx_hal_msp.c ****   /* USER CODE END ADC1_MspDeInit 0 */
 132:Core/Src/stm32f1xx_hal_msp.c ****     /* Peripheral clock disable */
 133:Core/Src/stm32f1xx_hal_msp.c ****     __HAL_RCC_ADC1_CLK_DISABLE();
 134:Core/Src/stm32f1xx_hal_msp.c **** 
 135:Core/Src/stm32f1xx_hal_msp.c ****     /**ADC1 GPIO Configuration
 136:Core/Src/stm32f1xx_hal_msp.c ****     PB0     ------> ADC1_IN8
 137:Core/Src/stm32f1xx_hal_msp.c ****     PB1     ------> ADC1_IN9
 138:Core/Src/stm32f1xx_hal_msp.c ****     */
 139:Core/Src/stm32f1xx_hal_msp.c ****     HAL_GPIO_DeInit(GPIOB, GPIO_PIN_0|GPIO_PIN_1);
 140:Core/Src/stm32f1xx_hal_msp.c **** 
 141:Core/Src/stm32f1xx_hal_msp.c ****   /* USER CODE BEGIN ADC1_MspDeInit 1 */
 142:Core/Src/stm32f1xx_hal_msp.c **** 
 143:Core/Src/stm32f1xx_hal_msp.c ****   /* USER CODE END ADC1_MspDeInit 1 */
 144:Core/Src/stm32f1xx_hal_msp.c ****   }
 145:Core/Src/stm32f1xx_hal_msp.c **** 
 146:Core/Src/stm32f1xx_hal_msp.c **** }
 238              		.loc 1 146 1 view .LVU53
 239 000a 08BD     		pop	{r3, pc}
 240              	.LVL11:
ARM GAS  C:\Users\Kingj\AppData\Local\Temp\ccjUgrkl.s 			page 8


 241              	.L14:
 133:Core/Src/stm32f1xx_hal_msp.c **** 
 242              		.loc 1 133 5 is_stmt 1 view .LVU54
 243 000c 054A     		ldr	r2, .L15+4
 244 000e 9369     		ldr	r3, [r2, #24]
 245 0010 23F40073 		bic	r3, r3, #512
 246 0014 9361     		str	r3, [r2, #24]
 139:Core/Src/stm32f1xx_hal_msp.c **** 
 247              		.loc 1 139 5 view .LVU55
 248 0016 0321     		movs	r1, #3
 249 0018 0348     		ldr	r0, .L15+8
 250              	.LVL12:
 139:Core/Src/stm32f1xx_hal_msp.c **** 
 251              		.loc 1 139 5 is_stmt 0 view .LVU56
 252 001a FFF7FEFF 		bl	HAL_GPIO_DeInit
 253              	.LVL13:
 254              		.loc 1 146 1 view .LVU57
 255 001e F4E7     		b	.L11
 256              	.L16:
 257              		.align	2
 258              	.L15:
 259 0020 00240140 		.word	1073816576
 260 0024 00100240 		.word	1073876992
 261 0028 000C0140 		.word	1073810432
 262              		.cfi_endproc
 263              	.LFE67:
 265              		.section	.text.HAL_I2C_MspInit,"ax",%progbits
 266              		.align	1
 267              		.global	HAL_I2C_MspInit
 268              		.syntax unified
 269              		.thumb
 270              		.thumb_func
 272              	HAL_I2C_MspInit:
 273              	.LVL14:
 274              	.LFB68:
 147:Core/Src/stm32f1xx_hal_msp.c **** 
 148:Core/Src/stm32f1xx_hal_msp.c **** /**
 149:Core/Src/stm32f1xx_hal_msp.c **** * @brief I2C MSP Initialization
 150:Core/Src/stm32f1xx_hal_msp.c **** * This function configures the hardware resources used in this example
 151:Core/Src/stm32f1xx_hal_msp.c **** * @param hi2c: I2C handle pointer
 152:Core/Src/stm32f1xx_hal_msp.c **** * @retval None
 153:Core/Src/stm32f1xx_hal_msp.c **** */
 154:Core/Src/stm32f1xx_hal_msp.c **** void HAL_I2C_MspInit(I2C_HandleTypeDef* hi2c)
 155:Core/Src/stm32f1xx_hal_msp.c **** {
 275              		.loc 1 155 1 is_stmt 1 view -0
 276              		.cfi_startproc
 277              		@ args = 0, pretend = 0, frame = 24
 278              		@ frame_needed = 0, uses_anonymous_args = 0
 279              		.loc 1 155 1 is_stmt 0 view .LVU59
 280 0000 10B5     		push	{r4, lr}
 281              	.LCFI8:
 282              		.cfi_def_cfa_offset 8
 283              		.cfi_offset 4, -8
 284              		.cfi_offset 14, -4
 285 0002 86B0     		sub	sp, sp, #24
 286              	.LCFI9:
 287              		.cfi_def_cfa_offset 32
ARM GAS  C:\Users\Kingj\AppData\Local\Temp\ccjUgrkl.s 			page 9


 156:Core/Src/stm32f1xx_hal_msp.c ****   GPIO_InitTypeDef GPIO_InitStruct = {0};
 288              		.loc 1 156 3 is_stmt 1 view .LVU60
 289              		.loc 1 156 20 is_stmt 0 view .LVU61
 290 0004 0023     		movs	r3, #0
 291 0006 0293     		str	r3, [sp, #8]
 292 0008 0393     		str	r3, [sp, #12]
 293 000a 0493     		str	r3, [sp, #16]
 294 000c 0593     		str	r3, [sp, #20]
 157:Core/Src/stm32f1xx_hal_msp.c ****   if(hi2c->Instance==I2C1)
 295              		.loc 1 157 3 is_stmt 1 view .LVU62
 296              		.loc 1 157 10 is_stmt 0 view .LVU63
 297 000e 0268     		ldr	r2, [r0]
 298              		.loc 1 157 5 view .LVU64
 299 0010 114B     		ldr	r3, .L21
 300 0012 9A42     		cmp	r2, r3
 301 0014 01D0     		beq	.L20
 302              	.LVL15:
 303              	.L17:
 158:Core/Src/stm32f1xx_hal_msp.c ****   {
 159:Core/Src/stm32f1xx_hal_msp.c ****   /* USER CODE BEGIN I2C1_MspInit 0 */
 160:Core/Src/stm32f1xx_hal_msp.c **** 
 161:Core/Src/stm32f1xx_hal_msp.c ****   /* USER CODE END I2C1_MspInit 0 */
 162:Core/Src/stm32f1xx_hal_msp.c **** 
 163:Core/Src/stm32f1xx_hal_msp.c ****     __HAL_RCC_GPIOB_CLK_ENABLE();
 164:Core/Src/stm32f1xx_hal_msp.c ****     /**I2C1 GPIO Configuration
 165:Core/Src/stm32f1xx_hal_msp.c ****     PB6     ------> I2C1_SCL
 166:Core/Src/stm32f1xx_hal_msp.c ****     PB7     ------> I2C1_SDA
 167:Core/Src/stm32f1xx_hal_msp.c ****     */
 168:Core/Src/stm32f1xx_hal_msp.c ****     GPIO_InitStruct.Pin = GPIO_PIN_6|GPIO_PIN_7;
 169:Core/Src/stm32f1xx_hal_msp.c ****     GPIO_InitStruct.Mode = GPIO_MODE_AF_OD;
 170:Core/Src/stm32f1xx_hal_msp.c ****     GPIO_InitStruct.Speed = GPIO_SPEED_FREQ_HIGH;
 171:Core/Src/stm32f1xx_hal_msp.c ****     HAL_GPIO_Init(GPIOB, &GPIO_InitStruct);
 172:Core/Src/stm32f1xx_hal_msp.c **** 
 173:Core/Src/stm32f1xx_hal_msp.c ****     /* Peripheral clock enable */
 174:Core/Src/stm32f1xx_hal_msp.c ****     __HAL_RCC_I2C1_CLK_ENABLE();
 175:Core/Src/stm32f1xx_hal_msp.c ****   /* USER CODE BEGIN I2C1_MspInit 1 */
 176:Core/Src/stm32f1xx_hal_msp.c **** 
 177:Core/Src/stm32f1xx_hal_msp.c ****   /* USER CODE END I2C1_MspInit 1 */
 178:Core/Src/stm32f1xx_hal_msp.c ****   }
 179:Core/Src/stm32f1xx_hal_msp.c **** 
 180:Core/Src/stm32f1xx_hal_msp.c **** }
 304              		.loc 1 180 1 view .LVU65
 305 0016 06B0     		add	sp, sp, #24
 306              	.LCFI10:
 307              		.cfi_remember_state
 308              		.cfi_def_cfa_offset 8
 309              		@ sp needed
 310 0018 10BD     		pop	{r4, pc}
 311              	.LVL16:
 312              	.L20:
 313              	.LCFI11:
 314              		.cfi_restore_state
 163:Core/Src/stm32f1xx_hal_msp.c ****     /**I2C1 GPIO Configuration
 315              		.loc 1 163 5 is_stmt 1 view .LVU66
 316              	.LBB7:
 163:Core/Src/stm32f1xx_hal_msp.c ****     /**I2C1 GPIO Configuration
 317              		.loc 1 163 5 view .LVU67
ARM GAS  C:\Users\Kingj\AppData\Local\Temp\ccjUgrkl.s 			page 10


 163:Core/Src/stm32f1xx_hal_msp.c ****     /**I2C1 GPIO Configuration
 318              		.loc 1 163 5 view .LVU68
 319 001a 104C     		ldr	r4, .L21+4
 320 001c A369     		ldr	r3, [r4, #24]
 321 001e 43F00803 		orr	r3, r3, #8
 322 0022 A361     		str	r3, [r4, #24]
 163:Core/Src/stm32f1xx_hal_msp.c ****     /**I2C1 GPIO Configuration
 323              		.loc 1 163 5 view .LVU69
 324 0024 A369     		ldr	r3, [r4, #24]
 325 0026 03F00803 		and	r3, r3, #8
 326 002a 0093     		str	r3, [sp]
 163:Core/Src/stm32f1xx_hal_msp.c ****     /**I2C1 GPIO Configuration
 327              		.loc 1 163 5 view .LVU70
 328 002c 009B     		ldr	r3, [sp]
 329              	.LBE7:
 163:Core/Src/stm32f1xx_hal_msp.c ****     /**I2C1 GPIO Configuration
 330              		.loc 1 163 5 view .LVU71
 168:Core/Src/stm32f1xx_hal_msp.c ****     GPIO_InitStruct.Mode = GPIO_MODE_AF_OD;
 331              		.loc 1 168 5 view .LVU72
 168:Core/Src/stm32f1xx_hal_msp.c ****     GPIO_InitStruct.Mode = GPIO_MODE_AF_OD;
 332              		.loc 1 168 25 is_stmt 0 view .LVU73
 333 002e C023     		movs	r3, #192
 334 0030 0293     		str	r3, [sp, #8]
 169:Core/Src/stm32f1xx_hal_msp.c ****     GPIO_InitStruct.Speed = GPIO_SPEED_FREQ_HIGH;
 335              		.loc 1 169 5 is_stmt 1 view .LVU74
 169:Core/Src/stm32f1xx_hal_msp.c ****     GPIO_InitStruct.Speed = GPIO_SPEED_FREQ_HIGH;
 336              		.loc 1 169 26 is_stmt 0 view .LVU75
 337 0032 1223     		movs	r3, #18
 338 0034 0393     		str	r3, [sp, #12]
 170:Core/Src/stm32f1xx_hal_msp.c ****     HAL_GPIO_Init(GPIOB, &GPIO_InitStruct);
 339              		.loc 1 170 5 is_stmt 1 view .LVU76
 170:Core/Src/stm32f1xx_hal_msp.c ****     HAL_GPIO_Init(GPIOB, &GPIO_InitStruct);
 340              		.loc 1 170 27 is_stmt 0 view .LVU77
 341 0036 0323     		movs	r3, #3
 342 0038 0593     		str	r3, [sp, #20]
 171:Core/Src/stm32f1xx_hal_msp.c **** 
 343              		.loc 1 171 5 is_stmt 1 view .LVU78
 344 003a 02A9     		add	r1, sp, #8
 345 003c 0848     		ldr	r0, .L21+8
 346              	.LVL17:
 171:Core/Src/stm32f1xx_hal_msp.c **** 
 347              		.loc 1 171 5 is_stmt 0 view .LVU79
 348 003e FFF7FEFF 		bl	HAL_GPIO_Init
 349              	.LVL18:
 174:Core/Src/stm32f1xx_hal_msp.c ****   /* USER CODE BEGIN I2C1_MspInit 1 */
 350              		.loc 1 174 5 is_stmt 1 view .LVU80
 351              	.LBB8:
 174:Core/Src/stm32f1xx_hal_msp.c ****   /* USER CODE BEGIN I2C1_MspInit 1 */
 352              		.loc 1 174 5 view .LVU81
 174:Core/Src/stm32f1xx_hal_msp.c ****   /* USER CODE BEGIN I2C1_MspInit 1 */
 353              		.loc 1 174 5 view .LVU82
 354 0042 E369     		ldr	r3, [r4, #28]
 355 0044 43F40013 		orr	r3, r3, #2097152
 356 0048 E361     		str	r3, [r4, #28]
 174:Core/Src/stm32f1xx_hal_msp.c ****   /* USER CODE BEGIN I2C1_MspInit 1 */
 357              		.loc 1 174 5 view .LVU83
 358 004a E369     		ldr	r3, [r4, #28]
ARM GAS  C:\Users\Kingj\AppData\Local\Temp\ccjUgrkl.s 			page 11


 359 004c 03F40013 		and	r3, r3, #2097152
 360 0050 0193     		str	r3, [sp, #4]
 174:Core/Src/stm32f1xx_hal_msp.c ****   /* USER CODE BEGIN I2C1_MspInit 1 */
 361              		.loc 1 174 5 view .LVU84
 362 0052 019B     		ldr	r3, [sp, #4]
 363              	.LBE8:
 174:Core/Src/stm32f1xx_hal_msp.c ****   /* USER CODE BEGIN I2C1_MspInit 1 */
 364              		.loc 1 174 5 view .LVU85
 365              		.loc 1 180 1 is_stmt 0 view .LVU86
 366 0054 DFE7     		b	.L17
 367              	.L22:
 368 0056 00BF     		.align	2
 369              	.L21:
 370 0058 00540040 		.word	1073763328
 371 005c 00100240 		.word	1073876992
 372 0060 000C0140 		.word	1073810432
 373              		.cfi_endproc
 374              	.LFE68:
 376              		.section	.text.HAL_I2C_MspDeInit,"ax",%progbits
 377              		.align	1
 378              		.global	HAL_I2C_MspDeInit
 379              		.syntax unified
 380              		.thumb
 381              		.thumb_func
 383              	HAL_I2C_MspDeInit:
 384              	.LVL19:
 385              	.LFB69:
 181:Core/Src/stm32f1xx_hal_msp.c **** 
 182:Core/Src/stm32f1xx_hal_msp.c **** /**
 183:Core/Src/stm32f1xx_hal_msp.c **** * @brief I2C MSP De-Initialization
 184:Core/Src/stm32f1xx_hal_msp.c **** * This function freeze the hardware resources used in this example
 185:Core/Src/stm32f1xx_hal_msp.c **** * @param hi2c: I2C handle pointer
 186:Core/Src/stm32f1xx_hal_msp.c **** * @retval None
 187:Core/Src/stm32f1xx_hal_msp.c **** */
 188:Core/Src/stm32f1xx_hal_msp.c **** void HAL_I2C_MspDeInit(I2C_HandleTypeDef* hi2c)
 189:Core/Src/stm32f1xx_hal_msp.c **** {
 386              		.loc 1 189 1 is_stmt 1 view -0
 387              		.cfi_startproc
 388              		@ args = 0, pretend = 0, frame = 0
 389              		@ frame_needed = 0, uses_anonymous_args = 0
 190:Core/Src/stm32f1xx_hal_msp.c ****   if(hi2c->Instance==I2C1)
 390              		.loc 1 190 3 view .LVU88
 391              		.loc 1 190 10 is_stmt 0 view .LVU89
 392 0000 0268     		ldr	r2, [r0]
 393              		.loc 1 190 5 view .LVU90
 394 0002 0A4B     		ldr	r3, .L30
 395 0004 9A42     		cmp	r2, r3
 396 0006 00D0     		beq	.L29
 397 0008 7047     		bx	lr
 398              	.L29:
 189:Core/Src/stm32f1xx_hal_msp.c ****   if(hi2c->Instance==I2C1)
 399              		.loc 1 189 1 view .LVU91
 400 000a 10B5     		push	{r4, lr}
 401              	.LCFI12:
 402              		.cfi_def_cfa_offset 8
 403              		.cfi_offset 4, -8
 404              		.cfi_offset 14, -4
ARM GAS  C:\Users\Kingj\AppData\Local\Temp\ccjUgrkl.s 			page 12


 191:Core/Src/stm32f1xx_hal_msp.c ****   {
 192:Core/Src/stm32f1xx_hal_msp.c ****   /* USER CODE BEGIN I2C1_MspDeInit 0 */
 193:Core/Src/stm32f1xx_hal_msp.c **** 
 194:Core/Src/stm32f1xx_hal_msp.c ****   /* USER CODE END I2C1_MspDeInit 0 */
 195:Core/Src/stm32f1xx_hal_msp.c ****     /* Peripheral clock disable */
 196:Core/Src/stm32f1xx_hal_msp.c ****     __HAL_RCC_I2C1_CLK_DISABLE();
 405              		.loc 1 196 5 is_stmt 1 view .LVU92
 406 000c 084A     		ldr	r2, .L30+4
 407 000e D369     		ldr	r3, [r2, #28]
 408 0010 23F40013 		bic	r3, r3, #2097152
 409 0014 D361     		str	r3, [r2, #28]
 197:Core/Src/stm32f1xx_hal_msp.c **** 
 198:Core/Src/stm32f1xx_hal_msp.c ****     /**I2C1 GPIO Configuration
 199:Core/Src/stm32f1xx_hal_msp.c ****     PB6     ------> I2C1_SCL
 200:Core/Src/stm32f1xx_hal_msp.c ****     PB7     ------> I2C1_SDA
 201:Core/Src/stm32f1xx_hal_msp.c ****     */
 202:Core/Src/stm32f1xx_hal_msp.c ****     HAL_GPIO_DeInit(GPIOB, GPIO_PIN_6);
 410              		.loc 1 202 5 view .LVU93
 411 0016 074C     		ldr	r4, .L30+8
 412 0018 4021     		movs	r1, #64
 413 001a 2046     		mov	r0, r4
 414              	.LVL20:
 415              		.loc 1 202 5 is_stmt 0 view .LVU94
 416 001c FFF7FEFF 		bl	HAL_GPIO_DeInit
 417              	.LVL21:
 203:Core/Src/stm32f1xx_hal_msp.c **** 
 204:Core/Src/stm32f1xx_hal_msp.c ****     HAL_GPIO_DeInit(GPIOB, GPIO_PIN_7);
 418              		.loc 1 204 5 is_stmt 1 view .LVU95
 419 0020 8021     		movs	r1, #128
 420 0022 2046     		mov	r0, r4
 421 0024 FFF7FEFF 		bl	HAL_GPIO_DeInit
 422              	.LVL22:
 205:Core/Src/stm32f1xx_hal_msp.c **** 
 206:Core/Src/stm32f1xx_hal_msp.c ****   /* USER CODE BEGIN I2C1_MspDeInit 1 */
 207:Core/Src/stm32f1xx_hal_msp.c **** 
 208:Core/Src/stm32f1xx_hal_msp.c ****   /* USER CODE END I2C1_MspDeInit 1 */
 209:Core/Src/stm32f1xx_hal_msp.c ****   }
 210:Core/Src/stm32f1xx_hal_msp.c **** 
 211:Core/Src/stm32f1xx_hal_msp.c **** }
 423              		.loc 1 211 1 is_stmt 0 view .LVU96
 424 0028 10BD     		pop	{r4, pc}
 425              	.L31:
 426 002a 00BF     		.align	2
 427              	.L30:
 428 002c 00540040 		.word	1073763328
 429 0030 00100240 		.word	1073876992
 430 0034 000C0140 		.word	1073810432
 431              		.cfi_endproc
 432              	.LFE69:
 434              		.section	.text.HAL_UART_MspInit,"ax",%progbits
 435              		.align	1
 436              		.global	HAL_UART_MspInit
 437              		.syntax unified
 438              		.thumb
 439              		.thumb_func
 441              	HAL_UART_MspInit:
 442              	.LVL23:
ARM GAS  C:\Users\Kingj\AppData\Local\Temp\ccjUgrkl.s 			page 13


 443              	.LFB70:
 212:Core/Src/stm32f1xx_hal_msp.c **** 
 213:Core/Src/stm32f1xx_hal_msp.c **** /**
 214:Core/Src/stm32f1xx_hal_msp.c **** * @brief UART MSP Initialization
 215:Core/Src/stm32f1xx_hal_msp.c **** * This function configures the hardware resources used in this example
 216:Core/Src/stm32f1xx_hal_msp.c **** * @param huart: UART handle pointer
 217:Core/Src/stm32f1xx_hal_msp.c **** * @retval None
 218:Core/Src/stm32f1xx_hal_msp.c **** */
 219:Core/Src/stm32f1xx_hal_msp.c **** void HAL_UART_MspInit(UART_HandleTypeDef* huart)
 220:Core/Src/stm32f1xx_hal_msp.c **** {
 444              		.loc 1 220 1 is_stmt 1 view -0
 445              		.cfi_startproc
 446              		@ args = 0, pretend = 0, frame = 24
 447              		@ frame_needed = 0, uses_anonymous_args = 0
 448              		.loc 1 220 1 is_stmt 0 view .LVU98
 449 0000 10B5     		push	{r4, lr}
 450              	.LCFI13:
 451              		.cfi_def_cfa_offset 8
 452              		.cfi_offset 4, -8
 453              		.cfi_offset 14, -4
 454 0002 86B0     		sub	sp, sp, #24
 455              	.LCFI14:
 456              		.cfi_def_cfa_offset 32
 221:Core/Src/stm32f1xx_hal_msp.c ****   GPIO_InitTypeDef GPIO_InitStruct = {0};
 457              		.loc 1 221 3 is_stmt 1 view .LVU99
 458              		.loc 1 221 20 is_stmt 0 view .LVU100
 459 0004 0023     		movs	r3, #0
 460 0006 0293     		str	r3, [sp, #8]
 461 0008 0393     		str	r3, [sp, #12]
 462 000a 0493     		str	r3, [sp, #16]
 463 000c 0593     		str	r3, [sp, #20]
 222:Core/Src/stm32f1xx_hal_msp.c ****   if(huart->Instance==USART2)
 464              		.loc 1 222 3 is_stmt 1 view .LVU101
 465              		.loc 1 222 11 is_stmt 0 view .LVU102
 466 000e 0268     		ldr	r2, [r0]
 467              		.loc 1 222 5 view .LVU103
 468 0010 164B     		ldr	r3, .L36
 469 0012 9A42     		cmp	r2, r3
 470 0014 01D0     		beq	.L35
 471              	.LVL24:
 472              	.L32:
 223:Core/Src/stm32f1xx_hal_msp.c ****   {
 224:Core/Src/stm32f1xx_hal_msp.c ****   /* USER CODE BEGIN USART2_MspInit 0 */
 225:Core/Src/stm32f1xx_hal_msp.c **** 
 226:Core/Src/stm32f1xx_hal_msp.c ****   /* USER CODE END USART2_MspInit 0 */
 227:Core/Src/stm32f1xx_hal_msp.c ****     /* Peripheral clock enable */
 228:Core/Src/stm32f1xx_hal_msp.c ****     __HAL_RCC_USART2_CLK_ENABLE();
 229:Core/Src/stm32f1xx_hal_msp.c **** 
 230:Core/Src/stm32f1xx_hal_msp.c ****     __HAL_RCC_GPIOA_CLK_ENABLE();
 231:Core/Src/stm32f1xx_hal_msp.c ****     /**USART2 GPIO Configuration
 232:Core/Src/stm32f1xx_hal_msp.c ****     PA2     ------> USART2_TX
 233:Core/Src/stm32f1xx_hal_msp.c ****     PA3     ------> USART2_RX
 234:Core/Src/stm32f1xx_hal_msp.c ****     */
 235:Core/Src/stm32f1xx_hal_msp.c ****     GPIO_InitStruct.Pin = GPIO_PIN_2;
 236:Core/Src/stm32f1xx_hal_msp.c ****     GPIO_InitStruct.Mode = GPIO_MODE_AF_PP;
 237:Core/Src/stm32f1xx_hal_msp.c ****     GPIO_InitStruct.Speed = GPIO_SPEED_FREQ_HIGH;
 238:Core/Src/stm32f1xx_hal_msp.c ****     HAL_GPIO_Init(GPIOA, &GPIO_InitStruct);
ARM GAS  C:\Users\Kingj\AppData\Local\Temp\ccjUgrkl.s 			page 14


 239:Core/Src/stm32f1xx_hal_msp.c **** 
 240:Core/Src/stm32f1xx_hal_msp.c ****     GPIO_InitStruct.Pin = GPIO_PIN_3;
 241:Core/Src/stm32f1xx_hal_msp.c ****     GPIO_InitStruct.Mode = GPIO_MODE_INPUT;
 242:Core/Src/stm32f1xx_hal_msp.c ****     GPIO_InitStruct.Pull = GPIO_NOPULL;
 243:Core/Src/stm32f1xx_hal_msp.c ****     HAL_GPIO_Init(GPIOA, &GPIO_InitStruct);
 244:Core/Src/stm32f1xx_hal_msp.c **** 
 245:Core/Src/stm32f1xx_hal_msp.c ****   /* USER CODE BEGIN USART2_MspInit 1 */
 246:Core/Src/stm32f1xx_hal_msp.c **** 
 247:Core/Src/stm32f1xx_hal_msp.c ****   /* USER CODE END USART2_MspInit 1 */
 248:Core/Src/stm32f1xx_hal_msp.c ****   }
 249:Core/Src/stm32f1xx_hal_msp.c **** 
 250:Core/Src/stm32f1xx_hal_msp.c **** }
 473              		.loc 1 250 1 view .LVU104
 474 0016 06B0     		add	sp, sp, #24
 475              	.LCFI15:
 476              		.cfi_remember_state
 477              		.cfi_def_cfa_offset 8
 478              		@ sp needed
 479 0018 10BD     		pop	{r4, pc}
 480              	.LVL25:
 481              	.L35:
 482              	.LCFI16:
 483              		.cfi_restore_state
 228:Core/Src/stm32f1xx_hal_msp.c **** 
 484              		.loc 1 228 5 is_stmt 1 view .LVU105
 485              	.LBB9:
 228:Core/Src/stm32f1xx_hal_msp.c **** 
 486              		.loc 1 228 5 view .LVU106
 228:Core/Src/stm32f1xx_hal_msp.c **** 
 487              		.loc 1 228 5 view .LVU107
 488 001a 03F5E633 		add	r3, r3, #117760
 489 001e DA69     		ldr	r2, [r3, #28]
 490 0020 42F40032 		orr	r2, r2, #131072
 491 0024 DA61     		str	r2, [r3, #28]
 228:Core/Src/stm32f1xx_hal_msp.c **** 
 492              		.loc 1 228 5 view .LVU108
 493 0026 DA69     		ldr	r2, [r3, #28]
 494 0028 02F40032 		and	r2, r2, #131072
 495 002c 0092     		str	r2, [sp]
 228:Core/Src/stm32f1xx_hal_msp.c **** 
 496              		.loc 1 228 5 view .LVU109
 497 002e 009A     		ldr	r2, [sp]
 498              	.LBE9:
 228:Core/Src/stm32f1xx_hal_msp.c **** 
 499              		.loc 1 228 5 view .LVU110
 230:Core/Src/stm32f1xx_hal_msp.c ****     /**USART2 GPIO Configuration
 500              		.loc 1 230 5 view .LVU111
 501              	.LBB10:
 230:Core/Src/stm32f1xx_hal_msp.c ****     /**USART2 GPIO Configuration
 502              		.loc 1 230 5 view .LVU112
 230:Core/Src/stm32f1xx_hal_msp.c ****     /**USART2 GPIO Configuration
 503              		.loc 1 230 5 view .LVU113
 504 0030 9A69     		ldr	r2, [r3, #24]
 505 0032 42F00402 		orr	r2, r2, #4
 506 0036 9A61     		str	r2, [r3, #24]
 230:Core/Src/stm32f1xx_hal_msp.c ****     /**USART2 GPIO Configuration
 507              		.loc 1 230 5 view .LVU114
ARM GAS  C:\Users\Kingj\AppData\Local\Temp\ccjUgrkl.s 			page 15


 508 0038 9B69     		ldr	r3, [r3, #24]
 509 003a 03F00403 		and	r3, r3, #4
 510 003e 0193     		str	r3, [sp, #4]
 230:Core/Src/stm32f1xx_hal_msp.c ****     /**USART2 GPIO Configuration
 511              		.loc 1 230 5 view .LVU115
 512 0040 019B     		ldr	r3, [sp, #4]
 513              	.LBE10:
 230:Core/Src/stm32f1xx_hal_msp.c ****     /**USART2 GPIO Configuration
 514              		.loc 1 230 5 view .LVU116
 235:Core/Src/stm32f1xx_hal_msp.c ****     GPIO_InitStruct.Mode = GPIO_MODE_AF_PP;
 515              		.loc 1 235 5 view .LVU117
 235:Core/Src/stm32f1xx_hal_msp.c ****     GPIO_InitStruct.Mode = GPIO_MODE_AF_PP;
 516              		.loc 1 235 25 is_stmt 0 view .LVU118
 517 0042 0423     		movs	r3, #4
 518 0044 0293     		str	r3, [sp, #8]
 236:Core/Src/stm32f1xx_hal_msp.c ****     GPIO_InitStruct.Speed = GPIO_SPEED_FREQ_HIGH;
 519              		.loc 1 236 5 is_stmt 1 view .LVU119
 236:Core/Src/stm32f1xx_hal_msp.c ****     GPIO_InitStruct.Speed = GPIO_SPEED_FREQ_HIGH;
 520              		.loc 1 236 26 is_stmt 0 view .LVU120
 521 0046 0223     		movs	r3, #2
 522 0048 0393     		str	r3, [sp, #12]
 237:Core/Src/stm32f1xx_hal_msp.c ****     HAL_GPIO_Init(GPIOA, &GPIO_InitStruct);
 523              		.loc 1 237 5 is_stmt 1 view .LVU121
 237:Core/Src/stm32f1xx_hal_msp.c ****     HAL_GPIO_Init(GPIOA, &GPIO_InitStruct);
 524              		.loc 1 237 27 is_stmt 0 view .LVU122
 525 004a 0323     		movs	r3, #3
 526 004c 0593     		str	r3, [sp, #20]
 238:Core/Src/stm32f1xx_hal_msp.c **** 
 527              		.loc 1 238 5 is_stmt 1 view .LVU123
 528 004e 084C     		ldr	r4, .L36+4
 529 0050 02A9     		add	r1, sp, #8
 530 0052 2046     		mov	r0, r4
 531              	.LVL26:
 238:Core/Src/stm32f1xx_hal_msp.c **** 
 532              		.loc 1 238 5 is_stmt 0 view .LVU124
 533 0054 FFF7FEFF 		bl	HAL_GPIO_Init
 534              	.LVL27:
 240:Core/Src/stm32f1xx_hal_msp.c ****     GPIO_InitStruct.Mode = GPIO_MODE_INPUT;
 535              		.loc 1 240 5 is_stmt 1 view .LVU125
 240:Core/Src/stm32f1xx_hal_msp.c ****     GPIO_InitStruct.Mode = GPIO_MODE_INPUT;
 536              		.loc 1 240 25 is_stmt 0 view .LVU126
 537 0058 0823     		movs	r3, #8
 538 005a 0293     		str	r3, [sp, #8]
 241:Core/Src/stm32f1xx_hal_msp.c ****     GPIO_InitStruct.Pull = GPIO_NOPULL;
 539              		.loc 1 241 5 is_stmt 1 view .LVU127
 241:Core/Src/stm32f1xx_hal_msp.c ****     GPIO_InitStruct.Pull = GPIO_NOPULL;
 540              		.loc 1 241 26 is_stmt 0 view .LVU128
 541 005c 0023     		movs	r3, #0
 542 005e 0393     		str	r3, [sp, #12]
 242:Core/Src/stm32f1xx_hal_msp.c ****     HAL_GPIO_Init(GPIOA, &GPIO_InitStruct);
 543              		.loc 1 242 5 is_stmt 1 view .LVU129
 242:Core/Src/stm32f1xx_hal_msp.c ****     HAL_GPIO_Init(GPIOA, &GPIO_InitStruct);
 544              		.loc 1 242 26 is_stmt 0 view .LVU130
 545 0060 0493     		str	r3, [sp, #16]
 243:Core/Src/stm32f1xx_hal_msp.c **** 
 546              		.loc 1 243 5 is_stmt 1 view .LVU131
 547 0062 02A9     		add	r1, sp, #8
ARM GAS  C:\Users\Kingj\AppData\Local\Temp\ccjUgrkl.s 			page 16


 548 0064 2046     		mov	r0, r4
 549 0066 FFF7FEFF 		bl	HAL_GPIO_Init
 550              	.LVL28:
 551              		.loc 1 250 1 is_stmt 0 view .LVU132
 552 006a D4E7     		b	.L32
 553              	.L37:
 554              		.align	2
 555              	.L36:
 556 006c 00440040 		.word	1073759232
 557 0070 00080140 		.word	1073809408
 558              		.cfi_endproc
 559              	.LFE70:
 561              		.section	.text.HAL_UART_MspDeInit,"ax",%progbits
 562              		.align	1
 563              		.global	HAL_UART_MspDeInit
 564              		.syntax unified
 565              		.thumb
 566              		.thumb_func
 568              	HAL_UART_MspDeInit:
 569              	.LVL29:
 570              	.LFB71:
 251:Core/Src/stm32f1xx_hal_msp.c **** 
 252:Core/Src/stm32f1xx_hal_msp.c **** /**
 253:Core/Src/stm32f1xx_hal_msp.c **** * @brief UART MSP De-Initialization
 254:Core/Src/stm32f1xx_hal_msp.c **** * This function freeze the hardware resources used in this example
 255:Core/Src/stm32f1xx_hal_msp.c **** * @param huart: UART handle pointer
 256:Core/Src/stm32f1xx_hal_msp.c **** * @retval None
 257:Core/Src/stm32f1xx_hal_msp.c **** */
 258:Core/Src/stm32f1xx_hal_msp.c **** void HAL_UART_MspDeInit(UART_HandleTypeDef* huart)
 259:Core/Src/stm32f1xx_hal_msp.c **** {
 571              		.loc 1 259 1 is_stmt 1 view -0
 572              		.cfi_startproc
 573              		@ args = 0, pretend = 0, frame = 0
 574              		@ frame_needed = 0, uses_anonymous_args = 0
 575              		.loc 1 259 1 is_stmt 0 view .LVU134
 576 0000 08B5     		push	{r3, lr}
 577              	.LCFI17:
 578              		.cfi_def_cfa_offset 8
 579              		.cfi_offset 3, -8
 580              		.cfi_offset 14, -4
 260:Core/Src/stm32f1xx_hal_msp.c ****   if(huart->Instance==USART2)
 581              		.loc 1 260 3 is_stmt 1 view .LVU135
 582              		.loc 1 260 11 is_stmt 0 view .LVU136
 583 0002 0268     		ldr	r2, [r0]
 584              		.loc 1 260 5 view .LVU137
 585 0004 064B     		ldr	r3, .L42
 586 0006 9A42     		cmp	r2, r3
 587 0008 00D0     		beq	.L41
 588              	.LVL30:
 589              	.L38:
 261:Core/Src/stm32f1xx_hal_msp.c ****   {
 262:Core/Src/stm32f1xx_hal_msp.c ****   /* USER CODE BEGIN USART2_MspDeInit 0 */
 263:Core/Src/stm32f1xx_hal_msp.c **** 
 264:Core/Src/stm32f1xx_hal_msp.c ****   /* USER CODE END USART2_MspDeInit 0 */
 265:Core/Src/stm32f1xx_hal_msp.c ****     /* Peripheral clock disable */
 266:Core/Src/stm32f1xx_hal_msp.c ****     __HAL_RCC_USART2_CLK_DISABLE();
 267:Core/Src/stm32f1xx_hal_msp.c **** 
ARM GAS  C:\Users\Kingj\AppData\Local\Temp\ccjUgrkl.s 			page 17


 268:Core/Src/stm32f1xx_hal_msp.c ****     /**USART2 GPIO Configuration
 269:Core/Src/stm32f1xx_hal_msp.c ****     PA2     ------> USART2_TX
 270:Core/Src/stm32f1xx_hal_msp.c ****     PA3     ------> USART2_RX
 271:Core/Src/stm32f1xx_hal_msp.c ****     */
 272:Core/Src/stm32f1xx_hal_msp.c ****     HAL_GPIO_DeInit(GPIOA, GPIO_PIN_2|GPIO_PIN_3);
 273:Core/Src/stm32f1xx_hal_msp.c **** 
 274:Core/Src/stm32f1xx_hal_msp.c ****   /* USER CODE BEGIN USART2_MspDeInit 1 */
 275:Core/Src/stm32f1xx_hal_msp.c **** 
 276:Core/Src/stm32f1xx_hal_msp.c ****   /* USER CODE END USART2_MspDeInit 1 */
 277:Core/Src/stm32f1xx_hal_msp.c ****   }
 278:Core/Src/stm32f1xx_hal_msp.c **** 
 279:Core/Src/stm32f1xx_hal_msp.c **** }
 590              		.loc 1 279 1 view .LVU138
 591 000a 08BD     		pop	{r3, pc}
 592              	.LVL31:
 593              	.L41:
 266:Core/Src/stm32f1xx_hal_msp.c **** 
 594              		.loc 1 266 5 is_stmt 1 view .LVU139
 595 000c 054A     		ldr	r2, .L42+4
 596 000e D369     		ldr	r3, [r2, #28]
 597 0010 23F40033 		bic	r3, r3, #131072
 598 0014 D361     		str	r3, [r2, #28]
 272:Core/Src/stm32f1xx_hal_msp.c **** 
 599              		.loc 1 272 5 view .LVU140
 600 0016 0C21     		movs	r1, #12
 601 0018 0348     		ldr	r0, .L42+8
 602              	.LVL32:
 272:Core/Src/stm32f1xx_hal_msp.c **** 
 603              		.loc 1 272 5 is_stmt 0 view .LVU141
 604 001a FFF7FEFF 		bl	HAL_GPIO_DeInit
 605              	.LVL33:
 606              		.loc 1 279 1 view .LVU142
 607 001e F4E7     		b	.L38
 608              	.L43:
 609              		.align	2
 610              	.L42:
 611 0020 00440040 		.word	1073759232
 612 0024 00100240 		.word	1073876992
 613 0028 00080140 		.word	1073809408
 614              		.cfi_endproc
 615              	.LFE71:
 617              		.text
 618              	.Letext0:
 619              		.file 2 "Drivers/CMSIS/Device/ST/STM32F1xx/Include/stm32f103xb.h"
 620              		.file 3 "d:\\arm-gcc\\gcc\\arm-none-eabi\\include\\machine\\_default_types.h"
 621              		.file 4 "d:\\arm-gcc\\gcc\\arm-none-eabi\\include\\sys\\_stdint.h"
 622              		.file 5 "Drivers/CMSIS/Device/ST/STM32F1xx/Include/stm32f1xx.h"
 623              		.file 6 "Drivers/STM32F1xx_HAL_Driver/Inc/stm32f1xx_hal_def.h"
 624              		.file 7 "Drivers/STM32F1xx_HAL_Driver/Inc/stm32f1xx_hal_gpio.h"
 625              		.file 8 "Drivers/STM32F1xx_HAL_Driver/Inc/stm32f1xx_hal_dma.h"
 626              		.file 9 "Drivers/STM32F1xx_HAL_Driver/Inc/stm32f1xx_hal_adc.h"
 627              		.file 10 "Drivers/STM32F1xx_HAL_Driver/Inc/stm32f1xx_hal_i2c.h"
 628              		.file 11 "Drivers/STM32F1xx_HAL_Driver/Inc/stm32f1xx_hal_uart.h"
 629              		.file 12 "Drivers/STM32F1xx_HAL_Driver/Inc/stm32f1xx_hal_cortex.h"
ARM GAS  C:\Users\Kingj\AppData\Local\Temp\ccjUgrkl.s 			page 18

